; ModuleID = '31/2017.c'
source_filename = "31/2017.c"
target datalayout = "e-m:e-p270:32:32-p271:32:32-p272:64:64-i64:64-f80:128-n8:16:32:64-S128"
target triple = "x86_64-pc-linux-gnu"

%struct.stu = type { [100 x i8], %struct.stu* }

@.str = private unnamed_addr constant [4 x i8] c"end\00", align 1
@.str.1 = private unnamed_addr constant [4 x i8] c"%s\0A\00", align 1

; Function Attrs: noinline nounwind uwtable
define dso_local void @main() #0 {
  %1 = alloca i32, align 4
  %2 = alloca %struct.stu*, align 8
  %3 = alloca %struct.stu*, align 8
  %4 = alloca %struct.stu*, align 8
  store i32 0, i32* %1, align 4
  store %struct.stu* null, %struct.stu** %2, align 8
  store %struct.stu* null, %struct.stu** %3, align 8
  store %struct.stu* null, %struct.stu** %4, align 8
  %5 = call noalias i8* @malloc(i64 100) #4
  %6 = bitcast i8* %5 to %struct.stu*
  store %struct.stu* %6, %struct.stu** %4, align 8
  store %struct.stu* %6, %struct.stu** %3, align 8
  %7 = load %struct.stu*, %struct.stu** %3, align 8
  %8 = getelementptr inbounds %struct.stu, %struct.stu* %7, i32 0, i32 0
  %9 = getelementptr inbounds [100 x i8], [100 x i8]* %8, i64 0, i64 0
  %10 = call i32 (i8*, ...) bitcast (i32 (...)* @gets to i32 (i8*, ...)*)(i8* %9)
  br label %11

11:                                               ; preds = %29, %0
  %12 = load %struct.stu*, %struct.stu** %3, align 8
  %13 = getelementptr inbounds %struct.stu, %struct.stu* %12, i32 0, i32 0
  %14 = getelementptr inbounds [100 x i8], [100 x i8]* %13, i64 0, i64 0
  %15 = call i32 @strcmp(i8* %14, i8* getelementptr inbounds ([4 x i8], [4 x i8]* @.str, i64 0, i64 0)) #5
  %16 = icmp ne i32 %15, 0
  br i1 %16, label %17, label %37

17:                                               ; preds = %11
  %18 = load i32, i32* %1, align 4
  %19 = add nsw i32 %18, 1
  store i32 %19, i32* %1, align 4
  %20 = load i32, i32* %1, align 4
  %21 = icmp eq i32 %20, 1
  br i1 %21, label %22, label %25

22:                                               ; preds = %17
  %23 = load %struct.stu*, %struct.stu** %3, align 8
  %24 = getelementptr inbounds %struct.stu, %struct.stu* %23, i32 0, i32 1
  store %struct.stu* null, %struct.stu** %24, align 8
  br label %29

25:                                               ; preds = %17
  %26 = load %struct.stu*, %struct.stu** %4, align 8
  %27 = load %struct.stu*, %struct.stu** %3, align 8
  %28 = getelementptr inbounds %struct.stu, %struct.stu* %27, i32 0, i32 1
  store %struct.stu* %26, %struct.stu** %28, align 8
  br label %29

29:                                               ; preds = %25, %22
  %30 = load %struct.stu*, %struct.stu** %3, align 8
  store %struct.stu* %30, %struct.stu** %4, align 8
  %31 = call noalias i8* @malloc(i64 100) #4
  %32 = bitcast i8* %31 to %struct.stu*
  store %struct.stu* %32, %struct.stu** %3, align 8
  %33 = load %struct.stu*, %struct.stu** %3, align 8
  %34 = getelementptr inbounds %struct.stu, %struct.stu* %33, i32 0, i32 0
  %35 = getelementptr inbounds [100 x i8], [100 x i8]* %34, i64 0, i64 0
  %36 = call i32 (i8*, ...) bitcast (i32 (...)* @gets to i32 (i8*, ...)*)(i8* %35)
  br label %11

37:                                               ; preds = %11
  br label %38

38:                                               ; preds = %43, %37
  %39 = load %struct.stu*, %struct.stu** %4, align 8
  %40 = getelementptr inbounds %struct.stu, %struct.stu* %39, i32 0, i32 1
  %41 = load %struct.stu*, %struct.stu** %40, align 8
  %42 = icmp ne %struct.stu* %41, null
  br i1 %42, label %43, label %51

43:                                               ; preds = %38
  %44 = load %struct.stu*, %struct.stu** %4, align 8
  %45 = getelementptr inbounds %struct.stu, %struct.stu* %44, i32 0, i32 0
  %46 = getelementptr inbounds [100 x i8], [100 x i8]* %45, i64 0, i64 0
  %47 = call i32 (i8*, ...) @printf(i8* getelementptr inbounds ([4 x i8], [4 x i8]* @.str.1, i64 0, i64 0), i8* %46)
  %48 = load %struct.stu*, %struct.stu** %4, align 8
  %49 = getelementptr inbounds %struct.stu, %struct.stu* %48, i32 0, i32 1
  %50 = load %struct.stu*, %struct.stu** %49, align 8
  store %struct.stu* %50, %struct.stu** %4, align 8
  br label %38

51:                                               ; preds = %38
  %52 = load %struct.stu*, %struct.stu** %4, align 8
  %53 = getelementptr inbounds %struct.stu, %struct.stu* %52, i32 0, i32 0
  %54 = getelementptr inbounds [100 x i8], [100 x i8]* %53, i64 0, i64 0
  %55 = call i32 (i8*, ...) @printf(i8* getelementptr inbounds ([4 x i8], [4 x i8]* @.str.1, i64 0, i64 0), i8* %54)
  ret void
}

; Function Attrs: nounwind
declare dso_local noalias i8* @malloc(i64) #1

declare dso_local i32 @gets(...) #2

; Function Attrs: nounwind readonly
declare dso_local i32 @strcmp(i8*, i8*) #3

declare dso_local i32 @printf(i8*, ...) #2


!llvm.module.flags = !{!0}
!llvm.ident = !{!1}

!0 = !{i32 1, !"wchar_size", i32 4}
!1 = !{!"clang version 10.0.0-4ubuntu1 "}
